target datalayout = "e-m:e-p270:32:32-p271:32:32-p272:64:64-i64:64-i128:128-f80:128-n8:16:32:64-S128"
target triple = "x86_64-pc-linux-gnu"

%struct._wmem_map_t = type { i32, i64, ptr, ptr, ptr, i32, i32, ptr, ptr }
%struct._wmem_map_item_t = type { ptr, ptr, ptr }

@x = internal global i32 0, align 4

; Function Attrs: null_pointer_is_valid sspstrong uwtable
define ptr @wmem_map_remove(ptr noundef %0, ptr noundef %1) #0 {
  %3 = alloca ptr, align 8
  %4 = alloca ptr, align 8
  %5 = alloca ptr, align 8
  %6 = alloca ptr, align 8
  %7 = alloca ptr, align 8
  %8 = alloca ptr, align 8
  %9 = alloca i32, align 4
  store ptr %0, ptr %4, align 8
  store ptr %1, ptr %5, align 8
  call void @llvm.lifetime.start.p0(i64 8, ptr %6) #8
  call void @llvm.lifetime.start.p0(i64 8, ptr %7) #8
  call void @llvm.lifetime.start.p0(i64 8, ptr %8) #8
  %10 = load ptr, ptr %4, align 8
  %11 = icmp eq ptr %10, null
  br i1 %11, label %17, label %12

12:                                               ; preds = %2
  %13 = load ptr, ptr %4, align 8
  %14 = getelementptr inbounds nuw %struct._wmem_map_t, ptr %13, i32 0, i32 2
  %15 = load ptr, ptr %14, align 8
  %16 = icmp eq ptr %15, null
  br i1 %16, label %17, label %18

17:                                               ; preds = %12, %2
  store ptr null, ptr %3, align 8
  store i32 1, ptr %9, align 4
  br label %76

18:                                               ; preds = %12
  %19 = load ptr, ptr %4, align 8
  %20 = getelementptr inbounds nuw %struct._wmem_map_t, ptr %19, i32 0, i32 2
  %21 = load ptr, ptr %20, align 8
  %22 = load ptr, ptr %4, align 8
  %23 = getelementptr inbounds nuw %struct._wmem_map_t, ptr %22, i32 0, i32 3
  %24 = load ptr, ptr %23, align 8
  %25 = load ptr, ptr %5, align 8
  %26 = call i32 %24(ptr noundef %25)
  %27 = load i32, ptr @x, align 4
  %28 = mul i32 %26, %27
  %29 = load ptr, ptr %4, align 8
  %30 = getelementptr inbounds nuw %struct._wmem_map_t, ptr %29, i32 0, i32 1
  %31 = load i64, ptr %30, align 8
  %32 = sub i64 32, %31
  %33 = trunc i64 %32 to i32
  %34 = lshr i32 %28, %33
  %35 = zext i32 %34 to i64
  %36 = getelementptr ptr, ptr %21, i64 %35
  store ptr %36, ptr %6, align 8
  br label %37

37:                                               ; preds = %71, %18
  %38 = load ptr, ptr %6, align 8
  %39 = load ptr, ptr %38, align 8
  %40 = icmp ne ptr %39, null
  br i1 %40, label %41, label %75

41:                                               ; preds = %37
  %42 = load ptr, ptr %4, align 8
  %43 = getelementptr inbounds nuw %struct._wmem_map_t, ptr %42, i32 0, i32 4
  %44 = load ptr, ptr %43, align 8
  %45 = load ptr, ptr %5, align 8
  %46 = load ptr, ptr %6, align 8
  %47 = load ptr, ptr %46, align 8
  %48 = getelementptr inbounds nuw %struct._wmem_map_item_t, ptr %47, i32 0, i32 0
  %49 = load ptr, ptr %48, align 8
  %50 = call i32 %44(ptr noundef %45, ptr noundef %49)
  %51 = icmp ne i32 %50, 0
  br i1 %51, label %52, label %71

52:                                               ; preds = %41
  %53 = load ptr, ptr %6, align 8
  %54 = load ptr, ptr %53, align 8
  store ptr %54, ptr %7, align 8
  %55 = load ptr, ptr %7, align 8
  %56 = getelementptr inbounds nuw %struct._wmem_map_item_t, ptr %55, i32 0, i32 1
  %57 = load ptr, ptr %56, align 8
  store ptr %57, ptr %8, align 8
  %58 = load ptr, ptr %7, align 8
  %59 = getelementptr inbounds nuw %struct._wmem_map_item_t, ptr %58, i32 0, i32 2
  %60 = load ptr, ptr %59, align 8
  %61 = load ptr, ptr %6, align 8
  store ptr %60, ptr %61, align 8
  %62 = load ptr, ptr %4, align 8
  %63 = getelementptr inbounds nuw %struct._wmem_map_t, ptr %62, i32 0, i32 8
  %64 = load ptr, ptr %63, align 8
  %65 = load ptr, ptr %7, align 8
  call void @wmem_free(ptr noundef %64, ptr noundef %65)
  %66 = load ptr, ptr %4, align 8
  %67 = getelementptr inbounds nuw %struct._wmem_map_t, ptr %66, i32 0, i32 0
  %68 = load i32, ptr %67, align 8
  %69 = add i32 %68, -1
  store i32 %69, ptr %67, align 8
  %70 = load ptr, ptr %8, align 8
  store ptr %70, ptr %3, align 8
  store i32 1, ptr %9, align 4
  br label %76

71:                                               ; preds = %41
  %72 = load ptr, ptr %6, align 8
  %73 = load ptr, ptr %72, align 8
  %74 = getelementptr inbounds nuw %struct._wmem_map_item_t, ptr %73, i32 0, i32 2
  store ptr %74, ptr %6, align 8
  br label %37, !llvm.loop !13

75:                                               ; preds = %37
  store ptr null, ptr %3, align 8
  store i32 1, ptr %9, align 4
  br label %76

76:                                               ; preds = %75, %52, %17
  call void @llvm.lifetime.end.p0(i64 8, ptr %8) #8
  call void @llvm.lifetime.end.p0(i64 8, ptr %7) #8
  call void @llvm.lifetime.end.p0(i64 8, ptr %6) #8
  %77 = load ptr, ptr %3, align 8
  ret ptr %77
}