; Function Attrs: null_pointer_is_valid sspstrong uwtable
define ptr @wmem_map_remove(ptr noundef captures(address_is_null) %0, ptr noundef %1) local_unnamed_addr #0 {
  %3 = icmp eq ptr %0, null
  br i1 %3, label %.loopexit, label %4

4:                                                ; preds = %2
  %5 = getelementptr inbounds nuw i8, ptr %0, i64 16
  %6 = load ptr, ptr %5, align 8
  %7 = icmp eq ptr %6, null
  br i1 %7, label %.loopexit, label %8

8:                                                ; preds = %4
  %9 = getelementptr inbounds nuw i8, ptr %0, i64 24
  %10 = load ptr, ptr %9, align 8
  %11 = tail call i32 %10(ptr noundef %1)
  %12 = load i32, ptr @x, align 4
  %13 = mul i32 %12, %11
  %14 = getelementptr inbounds nuw i8, ptr %0, i64 8
  %15 = load i64, ptr %14, align 8
  %16 = trunc i64 %15 to i32
  %17 = sub i32 32, %16
  %18 = lshr i32 %13, %17
  %19 = zext i32 %18 to i64
  %20 = getelementptr ptr, ptr %6, i64 %19
  %21 = load ptr, ptr %20, align 8
  %.not26 = icmp eq ptr %21, null
  br i1 %.not26, label %.loopexit, label %.lr.ph

.lr.ph:                                           ; preds = %8
  %22 = getelementptr inbounds nuw i8, ptr %0, i64 32
  br label %23

23:                                               ; preds = %.lr.ph, %38
  %24 = phi ptr [ %21, %.lr.ph ], [ %40, %38 ]
  %.02027 = phi ptr [ %20, %.lr.ph ], [ %39, %38 ]
  %25 = load ptr, ptr %22, align 8
  %26 = load ptr, ptr %24, align 8
  %27 = tail call i32 %25(ptr noundef %1, ptr noundef %26)
  %.not24 = icmp eq i32 %27, 0
  %28 = load ptr, ptr %.02027, align 8
  br i1 %.not24, label %38, label %29

29:                                               ; preds = %23
  %30 = getelementptr inbounds nuw i8, ptr %28, i64 8
  %31 = load ptr, ptr %30, align 8
  %32 = getelementptr inbounds nuw i8, ptr %28, i64 16
  %33 = load ptr, ptr %32, align 8
  store ptr %33, ptr %.02027, align 8
  %34 = getelementptr inbounds nuw i8, ptr %0, i64 56
  %35 = load ptr, ptr %34, align 8
  tail call void @wmem_free(ptr noundef %35, ptr noundef %28)
  %36 = load i32, ptr %0, align 8
  %37 = add i32 %36, -1
  store i32 %37, ptr %0, align 8
  br label %.loopexit

38:                                               ; preds = %23
  %39 = getelementptr inbounds nuw i8, ptr %28, i64 16
  %40 = load ptr, ptr %39, align 8
  %.not = icmp eq ptr %40, null
  br i1 %.not, label %.loopexit, label %23, !llvm.loop !14

.loopexit:                                        ; preds = %38, %8, %2, %4, %29
  %.0 = phi ptr [ %31, %29 ], [ null, %4 ], [ null, %2 ], [ null, %8 ], [ null, %38 ]
  ret ptr %.0
}